; Function Attrs: mustprogress uwtable
define i32 @uhash_igetiAndFound_77(ptr noundef readonly captures(none) %0, i32 noundef %1, ptr noundef writeonly captures(none) %2) local_unnamed_addr #0 {
  %.sroa.03.0.insert.ext = zext i32 %1 to i64
  %4 = inttoptr i64 %.sroa.03.0.insert.ext to ptr
  %5 = getelementptr inbounds nuw i8, ptr %0, i64 8
  %6 = load ptr, ptr %5, align 8, !tbaa !7
  %7 = tail call noundef i32 %6(ptr %4)
  %8 = load ptr, ptr %0, align 8, !tbaa !21
  %9 = and i32 %7, 2147483647
  %10 = xor i32 %9, 67108864
  %11 = getelementptr inbounds nuw i8, ptr %0, i64 52
  %12 = load i32, ptr %11, align 4, !tbaa !20
  %13 = srem i32 %10, %12
  %14 = getelementptr inbounds nuw i8, ptr %0, i64 16
  br label %15

15:                                               ; preds = %35, %3
  %.pre70.i = phi i32 [ %12, %3 ], [ %.pre.i, %35 ]
  %.036.i = phi i32 [ 0, %3 ], [ %.137.i, %35 ]
  %.033.i = phi i32 [ %13, %3 ], [ %37, %35 ]
  %.032.i = phi i32 [ -1, %3 ], [ %.1.i, %35 ]
  %16 = zext nneg i32 %.033.i to i64
  %17 = getelementptr inbounds nuw %struct.UHashElement, ptr %8, i64 %16
  %18 = load i32, ptr %17, align 8, !tbaa !22
  %19 = icmp eq i32 %18, %9
  br i1 %19, label %20, label %24

20:                                               ; preds = %15
  %21 = load ptr, ptr %14, align 8, !tbaa !13
  %22 = getelementptr inbounds nuw i8, ptr %17, i64 16
  %.sroa.0.0.copyload.i = load ptr, ptr %22, align 8, !tbaa !34
  %23 = tail call noundef signext i8 %21(ptr %4, ptr %.sroa.0.0.copyload.i)
  %.not.i = icmp eq i8 %23, 0
  br i1 %.not.i, label %._crit_edge.i, label %_ZL11_uhash_findPK10UHashtable8UElementi.exit

._crit_edge.i:                                    ; preds = %20
  %.pre.pre.i = load i32, ptr %11, align 4, !tbaa !20
  br label %29

24:                                               ; preds = %15
  %25 = icmp slt i32 %18, 0
  br i1 %25, label %26, label %29

26:                                               ; preds = %24
  %27 = icmp eq i32 %18, -2147483647
  %28 = icmp slt i32 %.032.i, 0
  %spec.select49.i = select i1 %28, i32 %.033.i, i32 %.032.i
  br i1 %27, label %.thread46.i, label %29

29:                                               ; preds = %26, %24, %._crit_edge.i
  %.pre.i = phi i32 [ %.pre.pre.i, %._crit_edge.i ], [ %.pre70.i, %24 ], [ %.pre70.i, %26 ]
  %.1.i = phi i32 [ %.032.i, %._crit_edge.i ], [ %.032.i, %24 ], [ %spec.select49.i, %26 ]
  %30 = icmp eq i32 %.036.i, 0
  br i1 %30, label %31, label %35

31:                                               ; preds = %29
  %32 = add nsw i32 %.pre.i, -1
  %33 = srem i32 %9, %32
  %34 = add nuw nsw i32 %33, 1
  br label %35

35:                                               ; preds = %31, %29
  %.137.i = phi i32 [ %34, %31 ], [ %.036.i, %29 ]
  %36 = add nuw nsw i32 %.137.i, %.033.i
  %37 = srem i32 %36, %.pre.i
  %.not41.i = icmp eq i32 %37, %13
  br i1 %.not41.i, label %38, label %15, !llvm.loop !37

38:                                               ; preds = %35
  %39 = icmp sgt i32 %.1.i, -1
  br i1 %39, label %.thread46.i, label %40

40:                                               ; preds = %38
  %.not42.i = icmp eq i32 %18, -2147483647
  br i1 %.not42.i, label %.thread46.i, label %41

41:                                               ; preds = %40
  tail call void @abort() #14
  unreachable

.thread46.i:                                      ; preds = %26, %40, %38
  %.235.i = phi i32 [ %13, %40 ], [ %.1.i, %38 ], [ %spec.select49.i, %26 ]
  %42 = zext nneg i32 %.235.i to i64
  %43 = getelementptr inbounds nuw %struct.UHashElement, ptr %8, i64 %42
  br label %_ZL11_uhash_findPK10UHashtable8UElementi.exit

_ZL11_uhash_findPK10UHashtable8UElementi.exit:    ; preds = %20, %.thread46.i
  %.0.i = phi ptr [ %43, %.thread46.i ], [ %17, %20 ]
  %44 = load i32, ptr %.0.i, align 8, !tbaa !22
  %45 = icmp sgt i32 %44, -1
  %46 = zext i1 %45 to i8
  store i8 %46, ptr %2, align 1, !tbaa !34
  %47 = getelementptr inbounds nuw i8, ptr %.0.i, i64 8
  %48 = load i32, ptr %47, align 8, !tbaa !34
  ret i32 %48
}